target datalayout = "e-m:e-p270:32:32-p271:32:32-p272:64:64-i64:64-i128:128-f80:128-n8:16:32:64-S128"
target triple = "x86_64-pc-linux-gnu"

@proto_register_obdii.ett = internal global [1 x ptr] [ptr @ett_obdii], align 8
@.str.145 = private unnamed_addr constant [11 x i8] c"OBD-II PID\00", align 1
@.str.146 = private unnamed_addr constant [7 x i8] c"OBD-II\00", align 1
@.str.147 = private unnamed_addr constant [7 x i8] c"obd-ii\00", align 1
@proto_obdii = internal global i32 0, align 4
@obdii_handle = internal global ptr null, align 8
@.str.148 = private unnamed_addr constant [11 x i8] c"obd-ii-uds\00", align 1

; Function Attrs: null_pointer_is_valid sspstrong uwtable
define hidden void @proto_register_obdii() #0 {
  %1 = alloca ptr, align 8
  call void @llvm.lifetime.start.p0(i64 8, ptr %1) #8
  %2 = call i32 @proto_register_protocol(ptr noundef @.str.145, ptr noundef @.str.146, ptr noundef @.str.147)
  store i32 %2, ptr @proto_obdii, align 4
  %3 = load i32, ptr @proto_obdii, align 4
  call void @proto_register_field_array(i32 noundef %3, ptr noundef @proto_register_obdii.hf, i32 noundef 73)
  call void @proto_register_subtree_array(ptr noundef @proto_register_obdii.ett, i32 noundef 1)
  %4 = load i32, ptr @proto_obdii, align 4
  %5 = call ptr @expert_register_protocol(i32 noundef %4)
  store ptr %5, ptr %1, align 8
  %6 = load ptr, ptr %1, align 8
  call void @expert_register_field_array(ptr noundef %6, ptr noundef @proto_register_obdii.obdii_ei, i32 noundef 1)
  %7 = load i32, ptr @proto_obdii, align 4
  %8 = call ptr @register_dissector(ptr noundef @.str.147, ptr noundef @dissect_obdii_iso15765, i32 noundef %7)
  store ptr %8, ptr @obdii_handle, align 8
  %9 = load i32, ptr @proto_obdii, align 4
  %10 = call ptr @register_dissector(ptr noundef @.str.148, ptr noundef @dissect_obdii_uds, i32 noundef %9)
  call void @llvm.lifetime.end.p0(i64 8, ptr %1) #8
  ret void
}