; Function Attrs: null_pointer_is_valid sspstrong uwtable
define hidden void @proto_register_obdii() local_unnamed_addr #0 {
  %1 = tail call i32 @proto_register_protocol(ptr noundef nonnull @.str.145, ptr noundef nonnull @.str.146, ptr noundef nonnull @.str.147)
  store i32 %1, ptr @proto_obdii, align 4
  tail call void @proto_register_field_array(i32 noundef %1, ptr noundef nonnull @proto_register_obdii.hf, i32 noundef 73)
  tail call void @proto_register_subtree_array(ptr noundef nonnull @proto_register_obdii.ett, i32 noundef 1)
  %2 = load i32, ptr @proto_obdii, align 4
  %3 = tail call ptr @expert_register_protocol(i32 noundef %2)
  tail call void @expert_register_field_array(ptr noundef %3, ptr noundef nonnull @proto_register_obdii.obdii_ei, i32 noundef 1)
  %4 = load i32, ptr @proto_obdii, align 4
  %5 = tail call ptr @register_dissector(ptr noundef nonnull @.str.147, ptr noundef nonnull @dissect_obdii_iso15765, i32 noundef %4)
  store ptr %5, ptr @obdii_handle, align 8
  %6 = load i32, ptr @proto_obdii, align 4
  %7 = tail call ptr @register_dissector(ptr noundef nonnull @.str.148, ptr noundef nonnull @dissect_obdii_uds, i32 noundef %6)
  ret void
}